Certificate:
    Data:
        Version: 3 (0x2)
        Serial Number: 3 (0x3)
        Signature Algorithm: sha1WithRSAEncryption
        Issuer: C=US, ST=Virginia, O=Lumify, CN=#361 Certificate Authority
        Validity
            Not Before: Apr 11 18:50:45 2014 GMT
            Not After : Apr 10 18:50:45 2016 GMT
        Subject: CN=Alice
        Subject Public Key Info:
            Public Key Algorithm: rsaEncryption
            RSA Public Key: (2048 bit)
                Modulus (2048 bit):
                    00:c6:dc:04:20:5e:5e:b6:c8:29:5b:d4:35:9e:c9:
                    53:02:6b:84:32:d8:47:54:97:b6:a7:dc:82:b4:80:
                    4a:5e:63:e9:16:b7:ef:08:76:3e:f8:15:69:a1:bd:
                    fe:5e:c6:bd:2d:bd:6b:7c:12:6b:df:b3:56:c5:7b:
                    5d:27:51:e3:9e:7b:13:eb:5f:a9:5a:91:cf:d0:ba:
                    ab:6f:19:25:d5:1c:04:b8:5e:d8:54:7d:37:45:f3:
                    ae:d1:86:83:78:bf:e3:0c:dc:d6:9a:6b:ef:e1:92:
                    da:c4:32:99:b7:ae:46:6b:f2:a2:bc:b6:1f:4f:5a:
                    35:3a:d7:a9:b5:36:bc:b6:e4:42:80:1b:a5:a1:22:
                    6b:39:b1:16:92:11:9f:52:55:8b:ae:1b:bf:0f:83:
                    b3:f1:67:20:90:bb:75:a5:65:86:7e:89:7b:a7:ad:
                    09:ab:67:14:44:f8:3a:63:97:95:b3:fe:fc:69:d4:
                    d8:ab:0a:6c:d7:a5:2a:e8:86:8e:ab:dc:ac:5d:40:
                    11:df:03:de:a3:c1:e7:cb:d3:54:c7:d1:fe:16:2d:
                    a7:2b:af:d4:af:ac:1c:60:bc:48:54:02:bd:e7:c4:
                    40:c9:70:95:fa:3a:9d:bf:f0:ae:7f:b8:e1:20:69:
                    11:0f:1f:b2:19:b3:d3:0e:99:a7:ab:33:f8:bd:52:
                    bf:ad
                Exponent: 65537 (0x10001)
        X509v3 extensions:
            X509v3 Basic Constraints: 
                CA:FALSE
            Netscape Comment: 
                OpenSSL Generated Certificate
            X509v3 Subject Key Identifier: 
                61:43:DE:F0:A8:32:24:D8:77:3D:A3:1C:46:FE:16:BE:4B:3D:95:0A
            X509v3 Authority Key Identifier: 
                keyid:26:5A:73:E4:BB:BF:C4:8C:01:75:99:F2:BF:10:11:DC:FE:08:EC:2A

    Signature Algorithm: sha1WithRSAEncryption
        d2:4e:3f:fa:65:3a:93:d7:23:c8:8f:c0:1f:1a:cf:c9:9c:53:
        80:9c:3a:cd:d1:28:89:10:c9:b4:e8:91:c8:30:5e:f1:a2:d8:
        35:4a:af:b2:db:5f:94:91:40:c7:80:80:d7:84:aa:8e:7c:49:
        73:1b:a5:ba:99:96:55:d3:6c:87:87:bd:3d:11:86:46:aa:f8:
        95:35:6f:87:d4:05:4e:5a:81:4b:b4:b1:10:0f:db:f8:54:96:
        b9:53:32:17:53:e1:1f:c5:5d:5e:29:b3:62:67:70:8e:d7:c7:
        ee:0b:7e:90:89:01:5e:c2:73:d3:53:e4:f0:46:cb:8a:b8:53:
        35:68:94:32:3f:1b:61:42:69:1b:ac:aa:96:0d:c5:7a:61:54:
        a5:49:4b:05:46:96:fb:ef:09:d3:0b:fa:3e:a2:08:d1:d3:67:
        a4:ae:ab:a0:a7:b3:9f:ac:cd:16:30:c1:11:ac:02:e5:e3:7d:
        85:91:77:39:64:d6:e3:85:b3:6b:cb:50:70:4b:4a:9b:4c:15:
        b7:08:2b:af:22:73:0d:6f:80:1b:40:fd:d0:fb:79:88:12:a3:
        c6:0d:4c:4e:ce:72:ca:4c:aa:51:86:8c:43:75:95:84:1a:cd:
        2b:5c:d3:84:ea:ba:a3:00:be:b6:7a:6e:8a:c9:11:85:d3:3f:
        6f:56:c8:61
-----BEGIN CERTIFICATE-----
MIIDXDCCAkSgAwIBAgIBAzANBgkqhkiG9w0BAQUFADBWMQswCQYDVQQGEwJVUzER
MA8GA1UECBMIVmlyZ2luaWExDzANBgNVBAoTBkx1bWlmeTEjMCEGA1UEAxQaIzM2
MSBDZXJ0aWZpY2F0ZSBBdXRob3JpdHkwHhcNMTQwNDExMTg1MDQ1WhcNMTYwNDEw
MTg1MDQ1WjAQMQ4wDAYDVQQDEwVBbGljZTCCASIwDQYJKoZIhvcNAQEBBQADggEP
ADCCAQoCggEBAMbcBCBeXrbIKVvUNZ7JUwJrhDLYR1SXtqfcgrSASl5j6Ra37wh2
PvgVaaG9/l7GvS29a3wSa9+zVsV7XSdR4557E+tfqVqRz9C6q28ZJdUcBLhe2FR9
N0XzrtGGg3i/4wzc1ppr7+GS2sQymbeuRmvyory2H09aNTrXqbU2vLbkQoAbpaEi
azmxFpIRn1JVi64bvw+Ds/FnIJC7daVlhn6Je6etCatnFET4OmOXlbP+/GnU2KsK
bNelKuiGjqvcrF1AEd8D3qPB58vTVMfR/hYtpyuv1K+sHGC8SFQCvefEQMlwlfo6
nb/wrn+44SBpEQ8fshmz0w6Zp6sz+L1Sv60CAwEAAaN7MHkwCQYDVR0TBAIwADAs
BglghkgBhvhCAQ0EHxYdT3BlblNTTCBHZW5lcmF0ZWQgQ2VydGlmaWNhdGUwHQYD
VR0OBBYEFGFD3vCoMiTYdz2jHEb+Fr5LPZUKMB8GA1UdIwQYMBaAFCZac+S7v8SM
AXWZ8r8QEdz+COwqMA0GCSqGSIb3DQEBBQUAA4IBAQDSTj/6ZTqT1yPIj8AfGs/J
nFOAnDrN0SiJEMm06JHIMF7xotg1Sq+y21+UkUDHgIDXhKqOfElzG6W6mZZV02yH
h709EYZGqviVNW+H1AVOWoFLtLEQD9v4VJa5UzIXU+EfxV1eKbNiZ3CO18fuC36Q
iQFewnPTU+TwRsuKuFM1aJQyPxthQmkbrKqWDcV6YVSlSUsFRpb77wnTC/o+ogjR
02ekrqugp7OfrM0WMMERrALl432FkXc5ZNbjhbNry1BwS0qbTBW3CCuvInMNb4Ab
QP3Q+3mIEqPGDUxOznLKTKpRhoxDdZWEGs0rXNOE6rqjAL62em6KyRGF0z9vVshh
-----END CERTIFICATE-----
