Certificate:
    Data:
        Version: 3 (0x2)
        Serial Number: 1 (0x1)
        Signature Algorithm: sha1WithRSAEncryption
        Issuer: C=US, ST=Virginia, L=Reston, O=Altamira Technologies Corporation, OU=IR&D, CN=lumify
        Validity
            Not Before: Apr  2 14:16:02 2014 GMT
            Not After : Apr  1 14:16:02 2016 GMT
        Subject: CN=Alice
        Subject Public Key Info:
            Public Key Algorithm: rsaEncryption
            RSA Public Key: (2048 bit)
                Modulus (2048 bit):
                    00:c5:cc:4d:7c:99:49:de:6e:60:2f:fb:a8:c7:64:
                    6d:76:54:d2:f3:16:c6:58:f6:88:b1:1e:fb:8a:b0:
                    0f:57:d6:7b:a0:03:e5:36:19:8d:d0:e2:ab:08:eb:
                    63:c2:ca:bb:75:97:57:86:33:2d:b7:c4:5e:7f:30:
                    48:1b:53:8b:c7:00:65:37:4a:21:fa:3a:78:07:a2:
                    22:23:89:71:bb:86:e0:ff:15:84:69:8a:44:a1:92:
                    e5:2e:6a:74:10:ad:db:24:61:47:2d:03:21:79:32:
                    28:31:79:81:49:ec:43:e5:d8:34:a5:9a:32:d6:7a:
                    7a:87:e0:b0:e9:06:08:17:33:6f:dc:3d:8d:42:80:
                    0f:a6:82:12:d6:3c:7b:fc:9c:c6:ce:c8:2a:b5:e3:
                    07:b5:83:59:13:7b:7f:9b:e2:86:99:be:de:27:c1:
                    53:07:cf:b7:ec:a9:41:ab:e1:23:0f:c3:ff:c5:38:
                    56:fd:d1:73:9c:b8:6d:e6:d6:9c:cd:6c:24:bb:0f:
                    1f:c1:b3:59:0b:a1:f3:d6:fe:c6:29:2f:39:78:97:
                    fc:3b:20:d8:25:9d:65:4b:5b:4f:df:62:c9:3f:8b:
                    71:9c:20:f1:af:d5:be:eb:fb:54:ed:50:5b:00:f0:
                    d6:06:70:a9:66:a8:e3:4d:d1:90:ad:c4:bd:c0:1f:
                    be:3d
                Exponent: 65537 (0x10001)
        X509v3 extensions:
            X509v3 Basic Constraints: 
                CA:FALSE
            Netscape Comment: 
                OpenSSL Generated Certificate
            X509v3 Subject Key Identifier: 
                29:E9:F9:B4:2C:91:D0:EF:10:71:D3:EE:5E:78:C2:DD:B9:4B:48:68
            X509v3 Authority Key Identifier: 
                DirName:/C=US/ST=Virginia/L=Reston/O=Altamira Technologies Corporation/OU=IR&D/CN=lumify
                serial:52:30:60:55

    Signature Algorithm: sha1WithRSAEncryption
        23:e4:5b:69:93:94:dd:82:8f:49:17:82:4d:f1:cf:c1:a6:80:
        b6:0b:da:99:b6:47:b3:73:8b:a8:30:7d:4f:d7:1e:30:d7:b7:
        d8:6b:51:1c:aa:bf:c8:8f:50:ff:0b:36:c2:e7:b1:b4:e7:7a:
        32:87:26:0b:44:8d:c0:6b:7b:b2:a1:32:70:67:fe:be:7b:cb:
        ee:3f:f7:77:3c:62:08:b0:af:33:c5:91:4e:73:52:e3:c8:98:
        8d:3d:ba:d0:fa:d8:6d:5d:52:df:ed:88:e8:ed:a7:13:7a:a1:
        20:fa:df:4a:0d:31:37:ad:86:db:5b:93:1e:26:af:37:68:b3:
        72:e1
-----BEGIN CERTIFICATE-----
MIIDezCCAuSgAwIBAgIBATANBgkqhkiG9w0BAQUFADB9MQswCQYDVQQGEwJVUzER
MA8GA1UECBMIVmlyZ2luaWExDzANBgNVBAcTBlJlc3RvbjEqMCgGA1UEChMhQWx0
YW1pcmEgVGVjaG5vbG9naWVzIENvcnBvcmF0aW9uMQ0wCwYDVQQLDARJUiZEMQ8w
DQYDVQQDEwZsdW1pZnkwHhcNMTQwNDAyMTQxNjAyWhcNMTYwNDAxMTQxNjAyWjAQ
MQ4wDAYDVQQDEwVBbGljZTCCASIwDQYJKoZIhvcNAQEBBQADggEPADCCAQoCggEB
AMXMTXyZSd5uYC/7qMdkbXZU0vMWxlj2iLEe+4qwD1fWe6AD5TYZjdDiqwjrY8LK
u3WXV4YzLbfEXn8wSBtTi8cAZTdKIfo6eAeiIiOJcbuG4P8VhGmKRKGS5S5qdBCt
2yRhRy0DIXkyKDF5gUnsQ+XYNKWaMtZ6eofgsOkGCBczb9w9jUKAD6aCEtY8e/yc
xs7IKrXjB7WDWRN7f5vihpm+3ifBUwfPt+ypQavhIw/D/8U4Vv3Rc5y4bebWnM1s
JLsPH8GzWQuh89b+xikvOXiX/Dsg2CWdZUtbT99iyT+LcZwg8a/Vvuv7VO1QWwDw
1gZwqWao403RkK3EvcAfvj0CAwEAAaOB8zCB8DAJBgNVHRMEAjAAMCwGCWCGSAGG
+EIBDQQfFh1PcGVuU1NMIEdlbmVyYXRlZCBDZXJ0aWZpY2F0ZTAdBgNVHQ4EFgQU
Ken5tCyR0O8QcdPuXnjC3blLSGgwgZUGA1UdIwSBjTCBiqGBgaR/MH0xCzAJBgNV
BAYTAlVTMREwDwYDVQQIEwhWaXJnaW5pYTEPMA0GA1UEBxMGUmVzdG9uMSowKAYD
VQQKEyFBbHRhbWlyYSBUZWNobm9sb2dpZXMgQ29ycG9yYXRpb24xDTALBgNVBAsM
BElSJkQxDzANBgNVBAMTBmx1bWlmeYIEUjBgVTANBgkqhkiG9w0BAQUFAAOBgQAj
5Ftpk5Tdgo9JF4JN8c/BpoC2C9qZtkezc4uoMH1P1x4w17fYa1Ecqr/Ij1D/CzbC
57G053oyhyYLRI3Aa3uyoTJwZ/6+e8vuP/d3PGIIsK8zxZFOc1LjyJiNPbrQ+tht
XVLf7Yjo7acTeqEg+t9KDTE3rYbbW5MeJq83aLNy4Q==
-----END CERTIFICATE-----
