Certificate:
    Data:
        Version: 3 (0x2)
        Serial Number: 5 (0x5)
        Signature Algorithm: sha1WithRSAEncryption
        Issuer: C=US, ST=Virginia, O=Lumify, CN=#361 Certificate Authority
        Validity
            Not Before: Apr 11 18:55:02 2014 GMT
            Not After : Apr 10 18:55:02 2016 GMT
        Subject: CN=Carlos
        Subject Public Key Info:
            Public Key Algorithm: rsaEncryption
            RSA Public Key: (2048 bit)
                Modulus (2048 bit):
                    00:e8:b6:e6:bc:81:6f:bb:dc:9d:d0:56:60:ec:b3:
                    b8:0b:7a:8f:41:22:30:0b:36:62:5d:01:8b:86:a6:
                    16:fa:7c:15:0b:0d:a5:4c:53:31:2d:77:d6:d2:51:
                    36:00:d0:3b:4a:c8:18:a6:9b:72:06:2a:b2:d8:c7:
                    36:b1:39:5f:ac:fd:37:36:5a:62:75:e2:02:4a:d0:
                    51:37:b0:4d:90:1e:7a:bd:a2:c3:78:97:54:53:7a:
                    9f:4e:ce:1e:6a:e7:a6:d0:60:44:31:0a:17:3d:d8:
                    97:d9:18:ba:2e:a7:2f:57:e2:5e:fe:b5:9a:81:cf:
                    8a:97:c5:49:84:ac:30:d2:7c:47:a3:1c:ab:3c:02:
                    43:77:53:f7:ec:b1:99:dc:b4:ec:13:f0:c1:83:c5:
                    4d:2b:ea:87:95:13:ce:a3:40:be:2a:eb:31:24:bf:
                    58:e2:2f:8c:8f:d8:64:c4:b5:25:8c:47:0c:bc:96:
                    6b:6e:27:2a:aa:0f:b9:73:0c:d4:bf:26:e6:bf:6b:
                    42:7e:4b:4f:b0:1f:06:21:f3:ac:b6:d5:f8:83:04:
                    02:67:0f:65:43:3b:f1:09:c4:eb:02:86:76:c3:3d:
                    0e:04:4a:d0:b5:4f:2f:88:cb:05:e9:4d:65:7f:54:
                    80:85:cb:72:1a:29:20:c2:f5:c9:e1:06:1e:6d:03:
                    89:83
                Exponent: 65537 (0x10001)
        X509v3 extensions:
            X509v3 Basic Constraints: 
                CA:FALSE
            Netscape Comment: 
                OpenSSL Generated Certificate
            X509v3 Subject Key Identifier: 
                19:5D:E3:0B:E9:DF:93:36:72:AC:3C:BB:55:5D:F4:4A:BD:29:44:C9
            X509v3 Authority Key Identifier: 
                keyid:26:5A:73:E4:BB:BF:C4:8C:01:75:99:F2:BF:10:11:DC:FE:08:EC:2A

    Signature Algorithm: sha1WithRSAEncryption
        85:ce:88:b3:5f:3d:45:fe:cb:92:06:e9:4b:14:6e:48:51:23:
        30:c6:3a:22:c3:3d:2e:72:24:b5:21:c4:33:60:98:37:94:a4:
        76:53:8e:94:5a:bc:00:36:a7:4a:0a:62:c1:2a:1e:5f:73:a2:
        63:7d:b8:d7:69:a3:d7:60:bc:08:ab:db:66:f2:ff:37:5c:21:
        96:65:09:a2:78:18:b2:6e:7d:dc:e6:5d:15:6e:83:c2:f8:c0:
        5a:de:d5:51:57:c8:fe:66:52:4d:2e:61:41:89:b8:bf:05:52:
        2d:f0:64:9c:b0:5d:85:9d:30:9c:a7:48:4a:9d:03:50:75:e9:
        99:5b:46:72:c1:05:5c:8e:02:79:75:db:08:b3:42:95:66:1a:
        54:2d:95:70:3c:a2:79:7b:2a:b4:92:c2:6d:a0:e3:92:2f:2b:
        b3:b1:5d:49:81:05:ed:62:50:72:ad:ee:47:15:74:6f:26:a9:
        20:89:6e:29:5c:f5:fc:83:b4:6d:d2:93:1b:bb:05:80:55:ca:
        19:7a:0b:75:60:d5:df:b8:50:de:60:33:f8:c8:22:07:0f:93:
        c8:2a:70:62:38:a1:54:f4:03:93:42:88:67:71:fb:84:0f:30:
        88:7f:73:22:ba:70:a1:ff:1f:c8:5d:be:14:63:e1:43:c7:06:
        ae:6c:fb:31
-----BEGIN CERTIFICATE-----
MIIDXTCCAkWgAwIBAgIBBTANBgkqhkiG9w0BAQUFADBWMQswCQYDVQQGEwJVUzER
MA8GA1UECBMIVmlyZ2luaWExDzANBgNVBAoTBkx1bWlmeTEjMCEGA1UEAxQaIzM2
MSBDZXJ0aWZpY2F0ZSBBdXRob3JpdHkwHhcNMTQwNDExMTg1NTAyWhcNMTYwNDEw
MTg1NTAyWjARMQ8wDQYDVQQDEwZDYXJsb3MwggEiMA0GCSqGSIb3DQEBAQUAA4IB
DwAwggEKAoIBAQDotua8gW+73J3QVmDss7gLeo9BIjALNmJdAYuGphb6fBULDaVM
UzEtd9bSUTYA0DtKyBimm3IGKrLYxzaxOV+s/Tc2WmJ14gJK0FE3sE2QHnq9osN4
l1RTep9Ozh5q56bQYEQxChc92JfZGLoupy9X4l7+tZqBz4qXxUmErDDSfEejHKs8
AkN3U/fssZnctOwT8MGDxU0r6oeVE86jQL4q6zEkv1jiL4yP2GTEtSWMRwy8lmtu
JyqqD7lzDNS/Jua/a0J+S0+wHwYh86y21fiDBAJnD2VDO/EJxOsChnbDPQ4EStC1
Ty+IywXpTWV/VICFy3IaKSDC9cnhBh5tA4mDAgMBAAGjezB5MAkGA1UdEwQCMAAw
LAYJYIZIAYb4QgENBB8WHU9wZW5TU0wgR2VuZXJhdGVkIENlcnRpZmljYXRlMB0G
A1UdDgQWBBQZXeML6d+TNnKsPLtVXfRKvSlEyTAfBgNVHSMEGDAWgBQmWnPku7/E
jAF1mfK/EBHc/gjsKjANBgkqhkiG9w0BAQUFAAOCAQEAhc6Is189Rf7LkgbpSxRu
SFEjMMY6IsM9LnIktSHEM2CYN5SkdlOOlFq8ADanSgpiwSoeX3OiY32412mj12C8
CKvbZvL/N1whlmUJongYsm593OZdFW6DwvjAWt7VUVfI/mZSTS5hQYm4vwVSLfBk
nLBdhZ0wnKdISp0DUHXpmVtGcsEFXI4CeXXbCLNClWYaVC2VcDyieXsqtJLCbaDj
ki8rs7FdSYEF7WJQcq3uRxV0byapIIluKVz1/IO0bdKTG7sFgFXKGXoLdWDV37hQ
3mAz+MgiBw+TyCpwYjihVPQDk0KIZ3H7hA8wiH9zIrpwof8fyF2+FGPhQ8cGrmz7
MQ==
-----END CERTIFICATE-----
