Certificate:
    Data:
        Version: 3 (0x2)
        Serial Number: 3 (0x3)
        Signature Algorithm: sha1WithRSAEncryption
        Issuer: C=US, ST=Virginia, L=Reston, O=Altamira Technologies Corporation, OU=IR&D, CN=lumify
        Validity
            Not Before: Apr  2 15:15:39 2014 GMT
            Not After : Apr  1 15:15:39 2016 GMT
        Subject: CN=Carlos
        Subject Public Key Info:
            Public Key Algorithm: rsaEncryption
            RSA Public Key: (2048 bit)
                Modulus (2048 bit):
                    00:bf:6d:2b:82:a4:4c:eb:a9:a8:c5:4d:35:b5:68:
                    75:08:83:b6:5f:b9:0b:7a:99:f2:aa:0a:c6:cb:5e:
                    cd:0c:f5:bb:d0:6f:b0:54:8a:87:49:00:ab:52:89:
                    75:95:f4:f1:0f:57:2c:fb:cc:e5:19:46:c6:c0:bb:
                    ea:56:69:c7:7a:0f:6b:61:49:aa:46:9a:5c:39:a9:
                    03:c7:97:a8:47:d7:7e:93:11:02:d3:7f:a8:19:3b:
                    54:b3:69:dd:44:6b:c4:b0:13:87:1d:bb:28:2c:ca:
                    27:14:2a:db:75:ec:a2:4c:71:41:16:fb:c6:08:2b:
                    e6:db:ac:0d:95:08:31:da:3d:cb:e6:04:d5:f5:84:
                    df:31:c3:5b:1a:f6:78:45:d9:36:d3:93:55:b0:b3:
                    bc:0d:72:8c:a6:18:b1:6c:c9:1a:6f:41:3b:a2:bb:
                    12:4a:ff:9f:3d:8a:94:c5:ef:b4:a4:cf:69:8c:11:
                    37:88:40:26:53:55:cf:1a:41:d5:d5:2a:62:76:82:
                    10:de:00:50:b9:de:09:e5:ef:e9:34:12:c0:4d:67:
                    ac:8c:20:25:39:77:b0:d5:59:37:74:99:fc:f3:ad:
                    49:8e:88:dc:7e:65:de:27:b2:d2:8a:21:4e:bb:99:
                    11:af:9a:3d:62:a6:68:94:1b:dc:46:66:3c:6e:20:
                    43:71
                Exponent: 65537 (0x10001)
        X509v3 extensions:
            X509v3 Basic Constraints: 
                CA:FALSE
            Netscape Comment: 
                OpenSSL Generated Certificate
            X509v3 Subject Key Identifier: 
                79:09:76:15:85:42:1C:F1:5B:B6:25:2B:DE:B3:F5:52:9D:55:F9:3A
            X509v3 Authority Key Identifier: 
                DirName:/C=US/ST=Virginia/L=Reston/O=Altamira Technologies Corporation/OU=IR&D/CN=lumify
                serial:52:30:60:55

    Signature Algorithm: sha1WithRSAEncryption
        48:43:ba:10:8d:ef:04:0b:fc:05:b1:1c:0a:c2:20:68:a9:d2:
        12:f9:53:90:ac:4b:2e:5a:16:f4:a6:8a:86:29:54:b1:65:c2:
        d6:67:dc:51:44:60:a4:81:d1:7e:7c:22:a2:8d:1e:f6:a7:22:
        f5:e7:db:ab:e3:f3:2a:c7:49:fa:b5:12:39:62:d1:17:86:26:
        80:6c:42:db:e7:7c:0a:d6:89:ae:89:b9:85:f3:51:40:42:ee:
        61:4e:bc:55:7e:94:08:5d:0e:a0:43:4b:7a:b5:c5:1f:17:f7:
        a7:a0:7a:3f:52:40:ab:50:ed:7f:d1:96:4b:f5:6c:d1:46:bb:
        06:fa
-----BEGIN CERTIFICATE-----
MIIDfDCCAuWgAwIBAgIBAzANBgkqhkiG9w0BAQUFADB9MQswCQYDVQQGEwJVUzER
MA8GA1UECBMIVmlyZ2luaWExDzANBgNVBAcTBlJlc3RvbjEqMCgGA1UEChMhQWx0
YW1pcmEgVGVjaG5vbG9naWVzIENvcnBvcmF0aW9uMQ0wCwYDVQQLDARJUiZEMQ8w
DQYDVQQDEwZsdW1pZnkwHhcNMTQwNDAyMTUxNTM5WhcNMTYwNDAxMTUxNTM5WjAR
MQ8wDQYDVQQDEwZDYXJsb3MwggEiMA0GCSqGSIb3DQEBAQUAA4IBDwAwggEKAoIB
AQC/bSuCpEzrqajFTTW1aHUIg7ZfuQt6mfKqCsbLXs0M9bvQb7BUiodJAKtSiXWV
9PEPVyz7zOUZRsbAu+pWacd6D2thSapGmlw5qQPHl6hH136TEQLTf6gZO1Szad1E
a8SwE4cduygsyicUKtt17KJMcUEW+8YIK+bbrA2VCDHaPcvmBNX1hN8xw1sa9nhF
2TbTk1Wws7wNcoymGLFsyRpvQTuiuxJK/589ipTF77Skz2mMETeIQCZTVc8aQdXV
KmJ2ghDeAFC53gnl7+k0EsBNZ6yMICU5d7DVWTd0mfzzrUmOiNx+Zd4nstKKIU67
mRGvmj1ipmiUG9xGZjxuIENxAgMBAAGjgfMwgfAwCQYDVR0TBAIwADAsBglghkgB
hvhCAQ0EHxYdT3BlblNTTCBHZW5lcmF0ZWQgQ2VydGlmaWNhdGUwHQYDVR0OBBYE
FHkJdhWFQhzxW7YlK96z9VKdVfk6MIGVBgNVHSMEgY0wgYqhgYGkfzB9MQswCQYD
VQQGEwJVUzERMA8GA1UECBMIVmlyZ2luaWExDzANBgNVBAcTBlJlc3RvbjEqMCgG
A1UEChMhQWx0YW1pcmEgVGVjaG5vbG9naWVzIENvcnBvcmF0aW9uMQ0wCwYDVQQL
DARJUiZEMQ8wDQYDVQQDEwZsdW1pZnmCBFIwYFUwDQYJKoZIhvcNAQEFBQADgYEA
SEO6EI3vBAv8BbEcCsIgaKnSEvlTkKxLLloW9KaKhilUsWXC1mfcUURgpIHRfnwi
oo0e9qci9efbq+PzKsdJ+rUSOWLRF4YmgGxC2+d8CtaJrom5hfNRQELuYU68VX6U
CF0OoENLerXFHxf3p6B6P1JAq1Dtf9GWS/Vs0Ua7Bvo=
-----END CERTIFICATE-----
