Certificate:
    Data:
        Version: 3 (0x2)
        Serial Number: 4 (0x4)
        Signature Algorithm: sha1WithRSAEncryption
        Issuer: C=US, ST=Virginia, L=Reston, O=Altamira Technologies Corporation, OU=IR&D, CN=lumify
        Validity
            Not Before: Apr  2 15:30:30 2014 GMT
            Not After : Apr  1 15:30:30 2016 GMT
        Subject: CN=Diane
        Subject Public Key Info:
            Public Key Algorithm: rsaEncryption
            RSA Public Key: (2048 bit)
                Modulus (2048 bit):
                    00:cb:0c:49:54:1d:3f:c1:9a:b8:fa:20:3f:29:97:
                    3c:74:5a:42:0a:3f:bb:2e:6e:2a:e3:9f:ea:ec:07:
                    26:24:13:d4:8d:2c:f0:97:40:71:67:29:3d:17:55:
                    aa:34:88:01:9b:9f:d4:50:57:41:5d:54:af:10:15:
                    2f:20:f6:3a:b6:83:98:35:8f:c7:69:4a:44:bc:e2:
                    ca:d4:d4:a5:1a:df:ee:cf:7f:b3:da:a0:d4:44:67:
                    e0:48:72:3d:e0:f4:f6:9f:79:7c:7f:70:d5:5b:f4:
                    a6:2a:2a:fc:01:31:48:92:9e:cc:40:26:fe:b5:d8:
                    36:8e:f4:96:23:3e:2f:87:90:48:43:2d:dc:48:ee:
                    ef:f8:08:57:d9:39:d0:8d:09:9f:e7:16:43:78:9b:
                    bf:2f:ef:6b:89:32:6a:7f:81:d3:a6:7a:35:6b:bb:
                    f6:af:19:a4:09:4b:e4:b1:bf:97:02:f9:88:f5:88:
                    90:81:df:fa:28:aa:f5:90:b6:db:6d:3d:90:ed:db:
                    1c:2d:81:4c:c0:ee:23:fa:eb:86:31:85:38:17:1a:
                    16:bc:bc:a1:90:84:e3:dd:1a:d0:1f:95:05:44:ac:
                    14:32:0b:d9:0c:91:09:ad:e0:54:32:7c:51:ba:81:
                    77:da:37:7a:72:50:40:36:37:1e:07:44:fd:ac:df:
                    78:3f
                Exponent: 65537 (0x10001)
        X509v3 extensions:
            X509v3 Basic Constraints: 
                CA:FALSE
            Netscape Comment: 
                OpenSSL Generated Certificate
            X509v3 Subject Key Identifier: 
                3C:4C:FB:60:2E:F0:D9:1F:C4:8B:24:2A:D1:E1:4B:C7:B4:9B:35:69
            X509v3 Authority Key Identifier: 
                DirName:/C=US/ST=Virginia/L=Reston/O=Altamira Technologies Corporation/OU=IR&D/CN=lumify
                serial:52:30:60:55

    Signature Algorithm: sha1WithRSAEncryption
        2e:da:6d:eb:ec:b6:23:03:af:dd:7a:4c:e2:d9:df:02:c2:a9:
        60:93:04:a2:ce:51:f6:b1:a2:c0:65:9c:be:19:a1:19:e8:cb:
        4d:75:84:52:ad:a8:33:15:48:c2:a9:f7:22:86:32:21:22:3d:
        96:a4:b4:08:5e:55:41:41:12:4b:ec:c4:b5:33:d5:d5:5e:50:
        5e:59:6e:5f:b6:8c:7f:58:00:e3:4f:26:c4:aa:1b:be:80:b8:
        a1:0a:33:aa:5c:a5:c7:14:6b:d4:59:98:ca:c7:4c:d8:51:dc:
        87:64:39:e7:69:be:b7:9a:97:27:b2:e8:90:55:b6:42:75:a6:
        c6:28
-----BEGIN CERTIFICATE-----
MIIDezCCAuSgAwIBAgIBBDANBgkqhkiG9w0BAQUFADB9MQswCQYDVQQGEwJVUzER
MA8GA1UECBMIVmlyZ2luaWExDzANBgNVBAcTBlJlc3RvbjEqMCgGA1UEChMhQWx0
YW1pcmEgVGVjaG5vbG9naWVzIENvcnBvcmF0aW9uMQ0wCwYDVQQLDARJUiZEMQ8w
DQYDVQQDEwZsdW1pZnkwHhcNMTQwNDAyMTUzMDMwWhcNMTYwNDAxMTUzMDMwWjAQ
MQ4wDAYDVQQDEwVEaWFuZTCCASIwDQYJKoZIhvcNAQEBBQADggEPADCCAQoCggEB
AMsMSVQdP8GauPogPymXPHRaQgo/uy5uKuOf6uwHJiQT1I0s8JdAcWcpPRdVqjSI
AZuf1FBXQV1UrxAVLyD2OraDmDWPx2lKRLziytTUpRrf7s9/s9qg1ERn4EhyPeD0
9p95fH9w1Vv0pioq/AExSJKezEAm/rXYNo70liM+L4eQSEMt3Eju7/gIV9k50I0J
n+cWQ3ibvy/va4kyan+B06Z6NWu79q8ZpAlL5LG/lwL5iPWIkIHf+iiq9ZC22209
kO3bHC2BTMDuI/rrhjGFOBcaFry8oZCE490a0B+VBUSsFDIL2QyRCa3gVDJ8UbqB
d9o3enJQQDY3HgdE/azfeD8CAwEAAaOB8zCB8DAJBgNVHRMEAjAAMCwGCWCGSAGG
+EIBDQQfFh1PcGVuU1NMIEdlbmVyYXRlZCBDZXJ0aWZpY2F0ZTAdBgNVHQ4EFgQU
PEz7YC7w2R/EiyQq0eFLx7SbNWkwgZUGA1UdIwSBjTCBiqGBgaR/MH0xCzAJBgNV
BAYTAlVTMREwDwYDVQQIEwhWaXJnaW5pYTEPMA0GA1UEBxMGUmVzdG9uMSowKAYD
VQQKEyFBbHRhbWlyYSBUZWNobm9sb2dpZXMgQ29ycG9yYXRpb24xDTALBgNVBAsM
BElSJkQxDzANBgNVBAMTBmx1bWlmeYIEUjBgVTANBgkqhkiG9w0BAQUFAAOBgQAu
2m3r7LYjA6/dekzi2d8CwqlgkwSizlH2saLAZZy+GaEZ6MtNdYRSragzFUjCqfci
hjIhIj2WpLQIXlVBQRJL7MS1M9XVXlBeWW5ftox/WADjTybEqhu+gLihCjOqXKXH
FGvUWZjKx0zYUdyHZDnnab63mpcnsuiQVbZCdabGKA==
-----END CERTIFICATE-----
