Certificate:
    Data:
        Version: 3 (0x2)
        Serial Number: 1 (0x1)
        Signature Algorithm: sha1WithRSAEncryption
        Issuer: C=US, ST=Virginia, O=Lumify, CN=#361 Certificate Authority
        Validity
            Not Before: Apr 11 18:39:47 2014 GMT
            Not After : Apr  8 18:39:47 2024 GMT
        Subject: C=US, ST=Virginia, O=Lumify, CN=#361 Certificate Authority
        Subject Public Key Info:
            Public Key Algorithm: rsaEncryption
            RSA Public Key: (2048 bit)
                Modulus (2048 bit):
                    00:ee:e7:d3:df:d7:95:0e:8c:eb:2b:a5:6e:d9:e5:
                    98:da:f4:95:f1:5d:81:26:3b:c7:be:6f:ce:11:7f:
                    8a:53:ea:80:b5:a7:39:96:2c:0d:2e:02:25:42:b1:
                    db:18:c3:a7:4f:c8:ef:81:e1:f2:00:87:9c:5a:60:
                    31:7a:3d:fb:c8:98:b0:d6:82:d0:db:34:c5:69:78:
                    c4:92:f1:23:13:e7:f6:17:96:53:a1:f6:eb:5f:66:
                    c1:67:c8:90:e0:8c:f1:dd:97:7c:19:ed:20:b6:3b:
                    6a:76:38:74:d0:1a:64:ea:52:3c:b6:da:c9:23:a3:
                    2c:36:18:73:a3:90:a6:a5:74:70:c6:4f:45:19:de:
                    45:9a:46:a6:27:68:c5:e2:e9:36:a2:6a:40:58:1c:
                    4a:80:10:87:ec:d2:1e:e1:05:f0:27:66:b9:33:8d:
                    26:12:e2:14:a6:2d:19:f7:57:a8:73:09:85:1e:f4:
                    38:ba:07:42:07:67:35:6c:96:6f:17:db:38:75:66:
                    bd:9c:b3:84:76:95:86:2e:88:c6:f5:63:10:d6:14:
                    f1:17:18:3a:17:82:c0:d9:72:4d:6d:e3:63:94:10:
                    1c:25:48:1a:18:35:03:a9:40:35:30:88:eb:c4:be:
                    77:c4:9b:da:f2:7f:ae:54:2e:61:70:c4:be:4c:2c:
                    b4:51
                Exponent: 65537 (0x10001)
        X509v3 extensions:
            X509v3 Subject Key Identifier: 
                26:5A:73:E4:BB:BF:C4:8C:01:75:99:F2:BF:10:11:DC:FE:08:EC:2A
            X509v3 Authority Key Identifier: 
                keyid:26:5A:73:E4:BB:BF:C4:8C:01:75:99:F2:BF:10:11:DC:FE:08:EC:2A

            X509v3 Basic Constraints: 
                CA:TRUE
    Signature Algorithm: sha1WithRSAEncryption
        e1:f7:45:8c:f9:8e:35:6c:d3:8b:c7:25:3e:4b:79:74:fa:5e:
        fc:f1:74:41:a1:49:ae:00:fb:8a:32:db:1e:e8:23:d2:cc:8f:
        c2:de:78:6e:35:7e:51:a3:81:7d:f8:19:4f:dd:0d:99:76:1d:
        d1:53:f0:ca:b6:7a:bf:75:13:9f:7e:b4:aa:cb:af:92:81:8e:
        22:54:20:d5:96:26:b9:cc:04:73:59:e7:7e:f7:43:f2:d2:1e:
        da:06:b7:86:1e:7d:45:52:b0:cf:30:9e:c6:fa:1a:83:0e:3c:
        8f:e5:4e:8a:d5:f6:4d:db:8a:62:1b:ed:e1:70:87:a5:70:27:
        5f:91:c3:05:97:ff:fe:4c:a6:5d:52:ae:d0:95:a9:ad:b9:6b:
        1b:b3:bf:e4:6a:3b:d6:d6:52:19:f3:06:fd:ab:72:da:0b:0e:
        3f:3e:70:8d:46:dd:c1:b6:24:97:03:14:97:58:fb:db:02:5d:
        fd:48:ae:be:86:43:5d:7f:34:9b:9f:d1:de:82:d7:c4:59:af:
        e7:cf:5a:00:63:35:72:16:2f:04:32:3c:8e:88:2b:22:b3:0b:
        5d:6d:b9:da:4f:ef:9c:b2:1a:07:01:0b:0d:24:cd:96:26:60:
        a4:c5:f2:d2:b1:55:d7:63:1b:0d:79:76:7d:39:a7:da:fb:30:
        df:df:75:5a
-----BEGIN CERTIFICATE-----
MIIDdzCCAl+gAwIBAgIBATANBgkqhkiG9w0BAQUFADBWMQswCQYDVQQGEwJVUzER
MA8GA1UECBMIVmlyZ2luaWExDzANBgNVBAoTBkx1bWlmeTEjMCEGA1UEAxQaIzM2
MSBDZXJ0aWZpY2F0ZSBBdXRob3JpdHkwHhcNMTQwNDExMTgzOTQ3WhcNMjQwNDA4
MTgzOTQ3WjBWMQswCQYDVQQGEwJVUzERMA8GA1UECBMIVmlyZ2luaWExDzANBgNV
BAoTBkx1bWlmeTEjMCEGA1UEAxQaIzM2MSBDZXJ0aWZpY2F0ZSBBdXRob3JpdHkw
ggEiMA0GCSqGSIb3DQEBAQUAA4IBDwAwggEKAoIBAQDu59Pf15UOjOsrpW7Z5Zja
9JXxXYEmO8e+b84Rf4pT6oC1pzmWLA0uAiVCsdsYw6dPyO+B4fIAh5xaYDF6PfvI
mLDWgtDbNMVpeMSS8SMT5/YXllOh9utfZsFnyJDgjPHdl3wZ7SC2O2p2OHTQGmTq
Ujy22skjoyw2GHOjkKaldHDGT0UZ3kWaRqYnaMXi6TaiakBYHEqAEIfs0h7hBfAn
ZrkzjSYS4hSmLRn3V6hzCYUe9Di6B0IHZzVslm8X2zh1Zr2cs4R2lYYuiMb1YxDW
FPEXGDoXgsDZck1t42OUEBwlSBoYNQOpQDUwiOvEvnfEm9ryf65ULmFwxL5MLLRR
AgMBAAGjUDBOMB0GA1UdDgQWBBQmWnPku7/EjAF1mfK/EBHc/gjsKjAfBgNVHSME
GDAWgBQmWnPku7/EjAF1mfK/EBHc/gjsKjAMBgNVHRMEBTADAQH/MA0GCSqGSIb3
DQEBBQUAA4IBAQDh90WM+Y41bNOLxyU+S3l0+l788XRBoUmuAPuKMtse6CPSzI/C
3nhuNX5Ro4F9+BlP3Q2Zdh3RU/DKtnq/dROffrSqy6+SgY4iVCDVlia5zARzWed+
90Py0h7aBreGHn1FUrDPMJ7G+hqDDjyP5U6K1fZN24piG+3hcIelcCdfkcMFl//+
TKZdUq7QlamtuWsbs7/kajvW1lIZ8wb9q3LaCw4/PnCNRt3BtiSXAxSXWPvbAl39
SK6+hkNdfzSbn9HegtfEWa/nz1oAYzVyFi8EMjyOiCsiswtdbbnaT++cshoHAQsN
JM2WJmCkxfLSsVXXYxsNeXZ9Oafa+zDf33Va
-----END CERTIFICATE-----
