Certificate:
    Data:
        Version: 3 (0x2)
        Serial Number: 7 (0x7)
        Signature Algorithm: sha1WithRSAEncryption
        Issuer: C=US, ST=Virginia, O=Lumify, CN=#361 Certificate Authority
        Validity
            Not Before: Apr 11 20:00:14 2014 GMT
            Not After : Apr 10 20:00:14 2016 GMT
        Subject: C=US, ST=Virginia, L=McLean, O=Lumify, CN=lumify-vm.lumify.io
        Subject Public Key Info:
            Public Key Algorithm: rsaEncryption
            RSA Public Key: (2048 bit)
                Modulus (2048 bit):
                    00:f7:68:9c:b7:db:57:63:87:c7:1e:fd:70:0d:a6:
                    f8:e6:9b:42:86:a8:f9:90:ff:12:95:94:f0:fa:61:
                    d7:1c:38:e0:5e:1d:ce:73:7f:5c:64:7c:34:dc:66:
                    af:1d:ea:03:b6:d9:d2:e9:71:45:2a:71:76:56:16:
                    a2:90:9e:65:de:89:db:d6:c5:3d:75:9d:b2:e6:9a:
                    f4:f6:10:21:ef:1a:50:f4:1d:d8:69:4f:6a:c4:03:
                    83:20:08:8a:91:91:a4:27:a4:ab:b0:81:cb:93:60:
                    14:4f:50:d8:e1:95:65:0e:e4:4b:16:c4:2e:76:24:
                    92:fe:a8:cc:ad:cd:1d:ea:f7:af:87:02:38:62:d0:
                    eb:3a:4b:97:d0:9e:1b:66:1c:19:00:d1:31:14:fb:
                    3b:54:bb:28:b3:bf:14:29:bb:7b:29:0b:df:4f:72:
                    90:25:ef:f3:17:54:a0:b8:3c:a2:52:1b:fe:9b:7d:
                    e5:f6:df:6d:4c:19:1e:e3:b8:4a:25:4a:bc:d6:b2:
                    5e:65:18:8a:1c:5d:70:14:12:d6:78:94:95:f7:69:
                    67:e1:4b:0a:e0:24:2c:3c:74:c4:39:33:73:17:c7:
                    df:95:99:aa:0a:7d:4d:98:e8:7f:56:bb:f2:dd:87:
                    63:0c:2f:f7:82:46:fc:53:fc:24:b6:ee:e1:b0:51:
                    57:31
                Exponent: 65537 (0x10001)
        X509v3 extensions:
            X509v3 Basic Constraints: 
                CA:FALSE
            Netscape Comment: 
                OpenSSL Generated Certificate
            X509v3 Subject Key Identifier: 
                90:46:BF:CD:B7:D4:A0:09:37:40:27:4C:20:C1:3C:F8:8C:D8:C2:A2
            X509v3 Authority Key Identifier: 
                keyid:26:5A:73:E4:BB:BF:C4:8C:01:75:99:F2:BF:10:11:DC:FE:08:EC:2A

    Signature Algorithm: sha1WithRSAEncryption
        9d:fa:e0:33:30:27:49:7b:47:94:c6:87:0b:ea:48:70:e6:77:
        66:d8:4f:be:d7:4d:67:84:25:5b:52:e6:9f:67:24:bf:16:5c:
        f0:53:6a:0c:16:85:b5:19:af:73:21:74:25:cc:73:6e:c5:61:
        f6:87:3e:dc:89:28:11:65:ce:a8:54:a5:64:78:85:c0:a1:3d:
        d1:03:11:0e:13:2d:ec:ba:ba:7e:a2:a5:de:f8:2f:84:5b:b5:
        98:82:73:9e:aa:7f:49:2d:e0:dd:6d:d5:18:cf:71:b2:f3:53:
        56:1a:4b:20:56:4e:f4:5f:03:b2:e2:d6:6e:eb:d0:d9:10:58:
        6d:63:8f:9f:c5:5d:ce:af:d2:9d:23:45:bc:73:41:8c:2d:2d:
        34:7a:f7:50:5e:de:9a:c3:44:9c:9e:45:2c:d2:e3:1e:ec:5e:
        23:78:d6:ec:fb:d9:81:d6:23:42:c8:ca:67:57:fd:7f:69:44:
        5d:b0:5f:43:64:0d:af:ee:50:96:d0:0b:2a:77:59:d9:97:c9:
        bb:fa:b4:71:5e:91:5f:44:d1:eb:6f:0f:13:5a:e2:f6:f7:54:
        37:e0:4a:79:c2:a3:dd:a0:47:d2:52:79:b9:3b:9e:fe:2a:a4:
        b8:ca:17:b8:2c:cf:21:35:b5:65:35:cd:e6:f1:04:46:72:8d:
        93:68:c6:39
-----BEGIN CERTIFICATE-----
MIIDrDCCApSgAwIBAgIBBzANBgkqhkiG9w0BAQUFADBWMQswCQYDVQQGEwJVUzER
MA8GA1UECBMIVmlyZ2luaWExDzANBgNVBAoTBkx1bWlmeTEjMCEGA1UEAxQaIzM2
MSBDZXJ0aWZpY2F0ZSBBdXRob3JpdHkwHhcNMTQwNDExMjAwMDE0WhcNMTYwNDEw
MjAwMDE0WjBgMQswCQYDVQQGEwJVUzERMA8GA1UECBMIVmlyZ2luaWExDzANBgNV
BAcTBk1jTGVhbjEPMA0GA1UEChMGTHVtaWZ5MRwwGgYDVQQDExNsdW1pZnktdm0u
bHVtaWZ5LmlvMIIBIjANBgkqhkiG9w0BAQEFAAOCAQ8AMIIBCgKCAQEA92ict9tX
Y4fHHv1wDab45ptChqj5kP8SlZTw+mHXHDjgXh3Oc39cZHw03GavHeoDttnS6XFF
KnF2VhaikJ5l3onb1sU9dZ2y5pr09hAh7xpQ9B3YaU9qxAODIAiKkZGkJ6SrsIHL
k2AUT1DY4ZVlDuRLFsQudiSS/qjMrc0d6vevhwI4YtDrOkuX0J4bZhwZANExFPs7
VLsos78UKbt7KQvfT3KQJe/zF1SguDyiUhv+m33l9t9tTBke47hKJUq81rJeZRiK
HF1wFBLWeJSV92ln4UsK4CQsPHTEOTNzF8fflZmqCn1NmOh/Vrvy3YdjDC/3gkb8
U/wktu7hsFFXMQIDAQABo3sweTAJBgNVHRMEAjAAMCwGCWCGSAGG+EIBDQQfFh1P
cGVuU1NMIEdlbmVyYXRlZCBDZXJ0aWZpY2F0ZTAdBgNVHQ4EFgQUkEa/zbfUoAk3
QCdMIME8+IzYwqIwHwYDVR0jBBgwFoAUJlpz5Lu/xIwBdZnyvxAR3P4I7CowDQYJ
KoZIhvcNAQEFBQADggEBAJ364DMwJ0l7R5TGhwvqSHDmd2bYT77XTWeEJVtS5p9n
JL8WXPBTagwWhbUZr3MhdCXMc27FYfaHPtyJKBFlzqhUpWR4hcChPdEDEQ4TLey6
un6ipd74L4RbtZiCc56qf0kt4N1t1RjPcbLzU1YaSyBWTvRfA7Li1m7r0NkQWG1j
j5/FXc6v0p0jRbxzQYwtLTR691Be3prDRJyeRSzS4x7sXiN41uz72YHWI0LIymdX
/X9pRF2wX0NkDa/uUJbQCyp3WdmXybv6tHFekV9E0etvDxNa4vb3VDfgSnnCo92g
R9JSebk7nv4qpLjKF7gszyE1tWU1zebxBEZyjZNoxjk=
-----END CERTIFICATE-----
