Certificate:
    Data:
        Version: 3 (0x2)
        Serial Number: 2 (0x2)
        Signature Algorithm: sha1WithRSAEncryption
        Issuer: C=US, ST=Virginia, L=Reston, O=Altamira Technologies Corporation, OU=IR&D, CN=lumify
        Validity
            Not Before: Apr  2 14:33:40 2014 GMT
            Not After : Apr  1 14:33:40 2016 GMT
        Subject: CN=Bob
        Subject Public Key Info:
            Public Key Algorithm: rsaEncryption
            RSA Public Key: (2048 bit)
                Modulus (2048 bit):
                    00:bd:06:a1:2d:d8:70:8b:6c:af:11:08:09:f8:49:
                    4b:72:f3:a1:2d:7d:84:3d:ae:3c:a6:a9:49:e4:91:
                    a3:7e:b6:0c:04:4b:e2:b9:91:df:84:94:28:2b:79:
                    37:da:1a:61:cf:90:2c:d0:88:47:52:f8:b3:dc:d5:
                    c9:4a:33:b1:b8:03:47:c4:73:ce:52:4f:7d:de:a1:
                    7d:45:b0:c3:34:79:6d:29:74:a2:c9:4a:69:fa:e9:
                    6a:f4:b1:2f:1a:fd:ec:0f:6b:a8:b1:09:91:5d:ab:
                    39:a4:e1:6f:ec:33:9d:1c:c9:51:cb:7e:93:11:a1:
                    f2:d1:08:d3:b8:49:cc:48:40:65:60:3a:42:5d:22:
                    04:af:62:13:24:ec:aa:76:0a:67:fb:ca:d5:5e:04:
                    b9:b6:27:22:68:8e:5e:bf:14:7a:85:28:08:6e:69:
                    f7:cf:b7:1a:76:e8:65:8d:e3:59:77:cb:7d:d8:a4:
                    22:00:56:7d:e2:1f:f3:ce:9b:d5:72:53:8f:21:49:
                    ab:1c:4d:40:28:92:80:98:b3:1c:a1:05:0b:57:64:
                    87:ee:f3:73:c5:79:96:cb:e6:df:2b:7a:96:62:f8:
                    d2:d1:f8:e4:c1:92:8e:eb:8d:53:de:eb:d7:e2:fe:
                    cd:4b:84:e4:5b:07:aa:65:e2:69:19:5e:b4:51:95:
                    76:cf
                Exponent: 65537 (0x10001)
        X509v3 extensions:
            X509v3 Basic Constraints: 
                CA:FALSE
            Netscape Comment: 
                OpenSSL Generated Certificate
            X509v3 Subject Key Identifier: 
                42:5B:4F:BE:F9:19:6D:ED:BB:C5:5A:07:05:2B:50:0D:EB:8B:73:CA
            X509v3 Authority Key Identifier: 
                DirName:/C=US/ST=Virginia/L=Reston/O=Altamira Technologies Corporation/OU=IR&D/CN=lumify
                serial:52:30:60:55

    Signature Algorithm: sha1WithRSAEncryption
        32:89:f4:d5:50:81:fb:e0:a9:43:26:52:d6:f1:02:05:ad:2a:
        81:06:06:7c:5c:b9:2b:67:63:4e:86:6c:6b:0c:aa:c2:8b:3f:
        17:cc:b2:48:70:8e:d6:1b:df:82:93:9e:6a:ce:68:61:80:2b:
        77:04:8e:3b:f0:ad:c5:01:88:12:16:c0:04:42:c6:f3:b5:b1:
        3e:d1:fc:a2:15:a7:16:00:f9:bb:0b:0f:a6:42:5f:af:8b:fa:
        9a:87:74:1b:80:5a:d5:29:85:d9:26:77:09:33:8a:ea:79:62:
        b3:82:36:e2:23:ff:36:cb:8e:6e:e2:83:d3:35:0e:2d:9c:4d:
        d9:7e
-----BEGIN CERTIFICATE-----
MIIDeTCCAuKgAwIBAgIBAjANBgkqhkiG9w0BAQUFADB9MQswCQYDVQQGEwJVUzER
MA8GA1UECBMIVmlyZ2luaWExDzANBgNVBAcTBlJlc3RvbjEqMCgGA1UEChMhQWx0
YW1pcmEgVGVjaG5vbG9naWVzIENvcnBvcmF0aW9uMQ0wCwYDVQQLDARJUiZEMQ8w
DQYDVQQDEwZsdW1pZnkwHhcNMTQwNDAyMTQzMzQwWhcNMTYwNDAxMTQzMzQwWjAO
MQwwCgYDVQQDEwNCb2IwggEiMA0GCSqGSIb3DQEBAQUAA4IBDwAwggEKAoIBAQC9
BqEt2HCLbK8RCAn4SUty86EtfYQ9rjymqUnkkaN+tgwES+K5kd+ElCgreTfaGmHP
kCzQiEdS+LPc1clKM7G4A0fEc85ST33eoX1FsMM0eW0pdKLJSmn66Wr0sS8a/ewP
a6ixCZFdqzmk4W/sM50cyVHLfpMRofLRCNO4ScxIQGVgOkJdIgSvYhMk7Kp2Cmf7
ytVeBLm2JyJojl6/FHqFKAhuaffPtxp26GWN41l3y33YpCIAVn3iH/POm9VyU48h
SascTUAokoCYsxyhBQtXZIfu83PFeZbL5t8repZi+NLR+OTBko7rjVPe69fi/s1L
hORbB6pl4mkZXrRRlXbPAgMBAAGjgfMwgfAwCQYDVR0TBAIwADAsBglghkgBhvhC
AQ0EHxYdT3BlblNTTCBHZW5lcmF0ZWQgQ2VydGlmaWNhdGUwHQYDVR0OBBYEFEJb
T775GW3tu8VaBwUrUA3ri3PKMIGVBgNVHSMEgY0wgYqhgYGkfzB9MQswCQYDVQQG
EwJVUzERMA8GA1UECBMIVmlyZ2luaWExDzANBgNVBAcTBlJlc3RvbjEqMCgGA1UE
ChMhQWx0YW1pcmEgVGVjaG5vbG9naWVzIENvcnBvcmF0aW9uMQ0wCwYDVQQLDARJ
UiZEMQ8wDQYDVQQDEwZsdW1pZnmCBFIwYFUwDQYJKoZIhvcNAQEFBQADgYEAMon0
1VCB++CpQyZS1vECBa0qgQYGfFy5K2djToZsawyqwos/F8yySHCO1hvfgpOeas5o
YYArdwSOO/CtxQGIEhbABELG87WxPtH8ohWnFgD5uwsPpkJfr4v6mod0G4Ba1SmF
2SZ3CTOK6nlis4I24iP/NsuObuKD0zUOLZxN2X4=
-----END CERTIFICATE-----
