Certificate:
    Data:
        Version: 3 (0x2)
        Serial Number: 2 (0x2)
        Signature Algorithm: sha1WithRSAEncryption
        Issuer: C=US, ST=Virginia, O=Lumify, CN=#361 Certificate Authority
        Validity
            Not Before: Apr 11 18:45:49 2014 GMT
            Not After : Apr 10 18:45:49 2016 GMT
        Subject: C=US, ST=Virginia, L=McLean, O=Lumify, CN=lumify-vm.lumify.io
        Subject Public Key Info:
            Public Key Algorithm: rsaEncryption
            RSA Public Key: (2048 bit)
                Modulus (2048 bit):
                    00:b8:e8:c4:5b:7f:d1:4e:e2:65:a5:15:dc:cc:42:
                    ac:38:1d:41:f5:32:cb:03:23:43:d6:51:d0:14:38:
                    ca:02:08:af:ad:e4:7e:97:8c:ed:a1:74:97:07:d9:
                    92:88:82:6f:fe:10:78:0e:69:10:7e:88:1d:81:bc:
                    6d:dd:0b:c5:66:18:0f:c7:5a:88:c7:c1:4a:1c:84:
                    19:01:58:67:b3:08:07:66:ea:8d:7e:3d:73:f0:a8:
                    a1:48:ff:29:aa:56:10:26:7a:21:de:8a:e8:fa:fa:
                    44:5d:0e:1f:11:cf:3f:8d:4a:d6:27:0b:34:cb:46:
                    75:1b:33:92:ec:0e:db:74:12:73:89:b1:2e:8c:79:
                    61:2c:6f:7c:04:c8:4a:65:97:36:b1:40:9b:d5:e4:
                    af:52:a9:9c:46:7f:45:b4:d9:aa:54:0d:f3:8a:d4:
                    29:9b:10:65:33:7b:11:ca:c2:c8:fa:1f:f4:cf:35:
                    8b:90:7f:ea:86:a6:64:b2:73:0d:88:d0:51:d9:3b:
                    2d:23:b9:a4:c6:e2:48:84:e1:ca:09:0e:93:5b:f8:
                    35:f5:2a:b9:41:f4:ec:a6:c8:17:56:10:e7:c2:8e:
                    e9:fc:ae:03:0a:82:ff:c2:cd:12:ae:63:86:86:68:
                    ac:91:52:5e:ea:a6:cc:6a:5a:38:40:be:9f:4f:1f:
                    93:89
                Exponent: 65537 (0x10001)
        X509v3 extensions:
            X509v3 Basic Constraints: 
                CA:FALSE
            Netscape Comment: 
                OpenSSL Generated Certificate
            X509v3 Subject Key Identifier: 
                DE:7C:A8:A3:0A:73:5E:2F:77:6A:E1:B7:2F:88:88:AD:21:5D:B3:54
            X509v3 Authority Key Identifier: 
                keyid:26:5A:73:E4:BB:BF:C4:8C:01:75:99:F2:BF:10:11:DC:FE:08:EC:2A

    Signature Algorithm: sha1WithRSAEncryption
        65:3b:5d:ea:78:2e:34:1b:2e:e5:68:ea:f5:0e:f5:7d:77:7d:
        41:58:fe:1d:cc:44:b9:5d:d4:c2:1f:18:9b:fc:5c:c5:61:80:
        88:e3:a0:cf:9e:41:30:21:11:50:94:8b:93:a5:63:65:0e:92:
        e9:b6:e5:df:ea:dc:40:ef:98:ec:e0:a7:58:d6:6f:ad:79:d8:
        b7:c2:af:6e:1e:6f:c2:9b:0f:02:dd:97:b3:2c:8c:b5:28:cc:
        96:3b:69:fa:6c:b0:98:8b:47:ec:1a:86:f6:cd:e6:52:48:6e:
        e2:d0:84:80:17:f6:4a:c1:36:45:72:0d:fe:a2:92:fd:32:7c:
        62:9e:5d:4a:79:14:c9:95:85:df:20:c3:41:2c:c0:44:47:d9:
        03:d5:b7:d4:ca:23:90:04:02:9d:aa:4d:f6:58:9d:45:7d:cb:
        6a:37:de:be:17:14:44:51:1c:a2:c8:7c:d0:d8:56:09:3e:4f:
        7c:70:58:cf:fc:42:79:d5:70:ca:52:bf:4c:a2:6f:69:e5:2d:
        db:64:f4:a8:98:4d:fd:e5:0e:aa:4c:4e:5f:92:fe:ce:c2:e0:
        05:83:37:7d:cb:dd:c8:f4:b1:3a:9d:31:f9:6f:e0:28:ba:02:
        3d:2b:37:17:50:3b:45:92:3d:25:b6:fc:c0:ec:e7:da:f5:5a:
        61:eb:2c:2a
-----BEGIN CERTIFICATE-----
MIIDrDCCApSgAwIBAgIBAjANBgkqhkiG9w0BAQUFADBWMQswCQYDVQQGEwJVUzER
MA8GA1UECBMIVmlyZ2luaWExDzANBgNVBAoTBkx1bWlmeTEjMCEGA1UEAxQaIzM2
MSBDZXJ0aWZpY2F0ZSBBdXRob3JpdHkwHhcNMTQwNDExMTg0NTQ5WhcNMTYwNDEw
MTg0NTQ5WjBgMQswCQYDVQQGEwJVUzERMA8GA1UECBMIVmlyZ2luaWExDzANBgNV
BAcTBk1jTGVhbjEPMA0GA1UEChMGTHVtaWZ5MRwwGgYDVQQDExNsdW1pZnktdm0u
bHVtaWZ5LmlvMIIBIjANBgkqhkiG9w0BAQEFAAOCAQ8AMIIBCgKCAQEAuOjEW3/R
TuJlpRXczEKsOB1B9TLLAyND1lHQFDjKAgivreR+l4ztoXSXB9mSiIJv/hB4DmkQ
fogdgbxt3QvFZhgPx1qIx8FKHIQZAVhnswgHZuqNfj1z8KihSP8pqlYQJnoh3oro
+vpEXQ4fEc8/jUrWJws0y0Z1GzOS7A7bdBJzibEujHlhLG98BMhKZZc2sUCb1eSv
UqmcRn9FtNmqVA3zitQpmxBlM3sRysLI+h/0zzWLkH/qhqZksnMNiNBR2TstI7mk
xuJIhOHKCQ6TW/g19Sq5QfTspsgXVhDnwo7p/K4DCoL/ws0SrmOGhmiskVJe6qbM
alo4QL6fTx+TiQIDAQABo3sweTAJBgNVHRMEAjAAMCwGCWCGSAGG+EIBDQQfFh1P
cGVuU1NMIEdlbmVyYXRlZCBDZXJ0aWZpY2F0ZTAdBgNVHQ4EFgQU3nyoowpzXi93
auG3L4iIrSFds1QwHwYDVR0jBBgwFoAUJlpz5Lu/xIwBdZnyvxAR3P4I7CowDQYJ
KoZIhvcNAQEFBQADggEBAGU7Xep4LjQbLuVo6vUO9X13fUFY/h3MRLld1MIfGJv8
XMVhgIjjoM+eQTAhEVCUi5OlY2UOkum25d/q3EDvmOzgp1jWb6152LfCr24eb8Kb
DwLdl7MsjLUozJY7afpssJiLR+wahvbN5lJIbuLQhIAX9krBNkVyDf6ikv0yfGKe
XUp5FMmVhd8gw0EswERH2QPVt9TKI5AEAp2qTfZYnUV9y2o33r4XFERRHKLIfNDY
Vgk+T3xwWM/8QnnVcMpSv0yib2nlLdtk9KiYTf3lDqpMTl+S/s7C4AWDN33L3cj0
sTqdMflv4Ci6Aj0rNxdQO0WSPSW2/MDs59r1WmHrLCo=
-----END CERTIFICATE-----
