Certificate:
    Data:
        Version: 3 (0x2)
        Serial Number: 4 (0x4)
        Signature Algorithm: sha1WithRSAEncryption
        Issuer: C=US, ST=Virginia, O=Lumify, CN=#361 Certificate Authority
        Validity
            Not Before: Apr 11 18:54:30 2014 GMT
            Not After : Apr 10 18:54:30 2016 GMT
        Subject: CN=Bob
        Subject Public Key Info:
            Public Key Algorithm: rsaEncryption
            RSA Public Key: (2048 bit)
                Modulus (2048 bit):
                    00:dd:a8:5c:43:77:ac:ed:50:8e:e5:30:cd:b9:ba:
                    c2:9d:47:03:34:cf:58:8c:fa:89:7c:b5:5f:a5:23:
                    34:5b:6c:76:d6:0c:f3:5d:47:84:3e:08:ee:2c:47:
                    8a:c0:fa:98:b4:52:db:5a:3f:a4:80:d6:15:98:15:
                    7c:1a:c0:9d:7f:da:ee:8a:a7:f9:d9:4a:58:d5:3f:
                    47:17:a5:42:67:69:82:14:4a:d4:31:14:1f:87:bf:
                    a8:b2:64:f4:24:7a:5a:fe:51:70:74:93:05:4c:80:
                    60:c1:d8:06:93:04:45:9e:24:d4:87:a7:2d:e6:82:
                    0a:3f:a4:8f:2c:47:73:ca:16:7c:9f:76:3c:e3:a7:
                    95:78:94:90:9b:a3:e4:47:f4:a2:93:aa:4b:c7:fb:
                    c1:f7:a0:88:b0:a3:df:5c:13:92:ab:f6:a0:1d:82:
                    c3:dd:54:1f:73:1a:f4:3c:33:03:e9:7b:3d:e6:62:
                    3b:7c:94:90:a4:ff:d4:ca:99:ed:cd:e6:b3:82:45:
                    13:3c:2a:ed:e8:69:20:1a:8a:e2:c6:a7:31:65:75:
                    5e:db:fe:dc:71:dd:f6:09:8c:b3:f8:ee:e0:bf:e6:
                    28:20:39:05:61:0a:46:97:41:e3:91:84:64:18:ef:
                    a5:84:56:66:20:70:f9:a9:b8:3c:02:14:b6:d4:04:
                    1c:27
                Exponent: 65537 (0x10001)
        X509v3 extensions:
            X509v3 Basic Constraints: 
                CA:FALSE
            Netscape Comment: 
                OpenSSL Generated Certificate
            X509v3 Subject Key Identifier: 
                46:FB:89:E0:BC:30:FD:34:C7:E5:8C:C7:62:EA:44:A8:F7:94:1F:F1
            X509v3 Authority Key Identifier: 
                keyid:26:5A:73:E4:BB:BF:C4:8C:01:75:99:F2:BF:10:11:DC:FE:08:EC:2A

    Signature Algorithm: sha1WithRSAEncryption
        12:14:a8:f1:ba:8c:94:a7:47:1f:eb:6b:a6:8f:ae:a9:7c:08:
        81:b1:70:a6:dc:b2:68:46:71:f0:7b:8f:e4:57:53:f5:92:b5:
        8e:90:e4:36:36:29:d2:25:63:69:83:7f:59:3a:4f:77:68:1d:
        6a:10:c0:77:ff:e5:06:24:68:e6:6d:64:4a:06:6f:58:2e:2f:
        f2:d4:3d:ba:3a:65:b3:c6:05:80:22:86:1a:a0:55:b8:0d:57:
        eb:df:65:3b:9b:ae:31:53:97:17:11:4c:14:0e:4e:83:ae:5a:
        bb:68:f6:8a:10:52:23:aa:c5:21:a8:92:ae:61:ad:57:03:eb:
        07:2e:83:d3:60:89:d8:55:2c:47:c9:6d:93:70:30:be:cd:f8:
        76:03:4f:36:70:8d:6f:0b:73:9a:83:c2:ad:b6:f2:98:c0:5d:
        e8:3c:ba:f7:4b:41:80:72:38:77:cb:66:f1:8c:e3:40:49:3e:
        6f:70:68:56:24:d4:b5:ff:db:d0:5e:1f:ae:f2:97:1f:51:04:
        fb:88:f8:96:b7:ef:15:1c:69:20:09:76:0f:fc:47:3b:f9:4c:
        d4:d2:8b:5d:cb:03:8b:08:b0:d3:a4:4b:f6:2c:a3:8d:2b:64:
        04:f2:63:96:b7:ff:82:ab:7c:ae:bd:83:b2:a9:79:81:fa:0f:
        2f:86:6f:23
-----BEGIN CERTIFICATE-----
MIIDWjCCAkKgAwIBAgIBBDANBgkqhkiG9w0BAQUFADBWMQswCQYDVQQGEwJVUzER
MA8GA1UECBMIVmlyZ2luaWExDzANBgNVBAoTBkx1bWlmeTEjMCEGA1UEAxQaIzM2
MSBDZXJ0aWZpY2F0ZSBBdXRob3JpdHkwHhcNMTQwNDExMTg1NDMwWhcNMTYwNDEw
MTg1NDMwWjAOMQwwCgYDVQQDEwNCb2IwggEiMA0GCSqGSIb3DQEBAQUAA4IBDwAw
ggEKAoIBAQDdqFxDd6ztUI7lMM25usKdRwM0z1iM+ol8tV+lIzRbbHbWDPNdR4Q+
CO4sR4rA+pi0UttaP6SA1hWYFXwawJ1/2u6Kp/nZSljVP0cXpUJnaYIUStQxFB+H
v6iyZPQkelr+UXB0kwVMgGDB2AaTBEWeJNSHpy3mggo/pI8sR3PKFnyfdjzjp5V4
lJCbo+RH9KKTqkvH+8H3oIiwo99cE5Kr9qAdgsPdVB9zGvQ8MwPpez3mYjt8lJCk
/9TKme3N5rOCRRM8Ku3oaSAaiuLGpzFldV7b/txx3fYJjLP47uC/5iggOQVhCkaX
QeORhGQY76WEVmYgcPmpuDwCFLbUBBwnAgMBAAGjezB5MAkGA1UdEwQCMAAwLAYJ
YIZIAYb4QgENBB8WHU9wZW5TU0wgR2VuZXJhdGVkIENlcnRpZmljYXRlMB0GA1Ud
DgQWBBRG+4ngvDD9NMfljMdi6kSo95Qf8TAfBgNVHSMEGDAWgBQmWnPku7/EjAF1
mfK/EBHc/gjsKjANBgkqhkiG9w0BAQUFAAOCAQEAEhSo8bqMlKdHH+trpo+uqXwI
gbFwptyyaEZx8HuP5FdT9ZK1jpDkNjYp0iVjaYN/WTpPd2gdahDAd//lBiRo5m1k
SgZvWC4v8tQ9ujpls8YFgCKGGqBVuA1X699lO5uuMVOXFxFMFA5Og65au2j2ihBS
I6rFIaiSrmGtVwPrBy6D02CJ2FUsR8ltk3Awvs34dgNPNnCNbwtzmoPCrbbymMBd
6Dy690tBgHI4d8tm8YzjQEk+b3BoViTUtf/b0F4frvKXH1EE+4j4lrfvFRxpIAl2
D/xHO/lM1NKLXcsDiwiw06RL9iyjjStkBPJjlrf/gqt8rr2Dsql5gfoPL4ZvIw==
-----END CERTIFICATE-----
