Certificate:
    Data:
        Version: 3 (0x2)
        Serial Number: 5 (0x5)
        Signature Algorithm: sha1WithRSAEncryption
        Issuer: C=US, ST=Virginia, L=Reston, O=Altamira Technologies Corporation, OU=IR&D, CN=lumify
        Validity
            Not Before: Apr  8 18:08:18 2014 GMT
            Not After : Apr  7 18:08:18 2016 GMT
        Subject: CN=Alice
        Subject Public Key Info:
            Public Key Algorithm: rsaEncryption
            RSA Public Key: (2048 bit)
                Modulus (2048 bit):
                    00:d5:30:13:73:db:0d:ee:1e:c8:15:91:3c:c5:86:
                    12:bb:14:79:12:a0:28:74:02:ec:78:28:92:01:e4:
                    b7:cc:d5:4d:87:63:f5:1f:7c:26:ff:85:4e:9e:92:
                    06:a9:3f:bc:27:b4:e9:ea:d0:82:9c:13:14:c9:29:
                    42:d7:49:7e:a8:9e:7d:c3:ff:f6:55:99:76:f8:43:
                    7d:01:53:95:2c:be:e0:1a:0a:e5:b0:e9:72:f4:d8:
                    ce:b2:4f:e4:ac:65:6a:df:51:5e:35:1f:0a:c5:77:
                    47:58:06:c4:6e:9d:aa:8c:db:39:37:7f:4d:c3:2c:
                    b5:b4:26:9e:e9:5d:c0:6a:29:7c:08:05:ce:98:e5:
                    0d:b7:fc:57:38:c7:52:6a:55:44:7a:3b:99:57:88:
                    68:4f:19:0d:94:68:97:ff:1f:84:f0:41:5c:49:93:
                    45:12:8e:d0:7a:fe:f0:39:92:c7:c9:cc:47:44:9d:
                    23:a2:0e:e0:9b:4f:5b:ca:8b:a5:7c:1e:ca:d0:5c:
                    9c:d8:7b:63:8f:d1:f2:47:9b:56:16:5f:0b:8f:26:
                    a4:6c:7d:e8:04:6f:82:51:53:c0:be:24:1e:9b:82:
                    38:32:9c:00:65:d6:66:2d:56:08:9f:48:e9:13:c1:
                    5e:58:d5:ea:eb:4d:60:c2:17:92:76:17:f2:dd:e8:
                    62:e5
                Exponent: 65537 (0x10001)
        X509v3 extensions:
            X509v3 Basic Constraints: 
                CA:FALSE
            Netscape Comment: 
                OpenSSL Generated Certificate
            X509v3 Subject Key Identifier: 
                B6:59:71:44:FC:5D:DF:E0:27:51:CE:D5:6E:EB:40:AC:10:04:D3:18
            X509v3 Authority Key Identifier: 
                DirName:/C=US/ST=Virginia/L=Reston/O=Altamira Technologies Corporation/OU=IR&D/CN=lumify
                serial:52:30:60:55

    Signature Algorithm: sha1WithRSAEncryption
        3f:ac:bf:5d:10:4f:b3:20:fd:8b:70:a1:7d:83:0f:75:f3:83:
        a4:e4:a9:a5:77:1a:2f:2d:c8:81:54:cd:b7:64:b1:70:7d:3f:
        0d:c8:3a:3c:0f:02:fc:26:1f:83:16:04:ed:53:32:3c:34:20:
        56:fa:4f:3d:30:1b:70:ef:75:80:59:60:d3:40:6f:79:d7:e5:
        d5:90:ec:ab:79:15:f6:52:2f:a2:c2:78:18:c7:92:54:ca:00:
        78:bc:a9:e9:01:e2:2a:97:30:9b:08:c2:93:53:a3:01:18:f0:
        41:fc:ee:48:39:49:49:19:c2:9b:f4:a9:49:82:81:6d:35:b2:
        96:e7
-----BEGIN CERTIFICATE-----
MIIDezCCAuSgAwIBAgIBBTANBgkqhkiG9w0BAQUFADB9MQswCQYDVQQGEwJVUzER
MA8GA1UECBMIVmlyZ2luaWExDzANBgNVBAcTBlJlc3RvbjEqMCgGA1UEChMhQWx0
YW1pcmEgVGVjaG5vbG9naWVzIENvcnBvcmF0aW9uMQ0wCwYDVQQLDARJUiZEMQ8w
DQYDVQQDEwZsdW1pZnkwHhcNMTQwNDA4MTgwODE4WhcNMTYwNDA3MTgwODE4WjAQ
MQ4wDAYDVQQDEwVBbGljZTCCASIwDQYJKoZIhvcNAQEBBQADggEPADCCAQoCggEB
ANUwE3PbDe4eyBWRPMWGErsUeRKgKHQC7HgokgHkt8zVTYdj9R98Jv+FTp6SBqk/
vCe06erQgpwTFMkpQtdJfqiefcP/9lWZdvhDfQFTlSy+4BoK5bDpcvTYzrJP5Kxl
at9RXjUfCsV3R1gGxG6dqozbOTd/TcMstbQmnuldwGopfAgFzpjlDbf8VzjHUmpV
RHo7mVeIaE8ZDZRol/8fhPBBXEmTRRKO0Hr+8DmSx8nMR0SdI6IO4JtPW8qLpXwe
ytBcnNh7Y4/R8kebVhZfC48mpGx96ARvglFTwL4kHpuCODKcAGXWZi1WCJ9I6RPB
XljV6utNYMIXknYX8t3oYuUCAwEAAaOB8zCB8DAJBgNVHRMEAjAAMCwGCWCGSAGG
+EIBDQQfFh1PcGVuU1NMIEdlbmVyYXRlZCBDZXJ0aWZpY2F0ZTAdBgNVHQ4EFgQU
tllxRPxd3+AnUc7VbutArBAE0xgwgZUGA1UdIwSBjTCBiqGBgaR/MH0xCzAJBgNV
BAYTAlVTMREwDwYDVQQIEwhWaXJnaW5pYTEPMA0GA1UEBxMGUmVzdG9uMSowKAYD
VQQKEyFBbHRhbWlyYSBUZWNobm9sb2dpZXMgQ29ycG9yYXRpb24xDTALBgNVBAsM
BElSJkQxDzANBgNVBAMTBmx1bWlmeYIEUjBgVTANBgkqhkiG9w0BAQUFAAOBgQA/
rL9dEE+zIP2LcKF9gw9184Ok5KmldxovLciBVM23ZLFwfT8NyDo8DwL8Jh+DFgTt
UzI8NCBW+k89MBtw73WAWWDTQG951+XVkOyreRX2Ui+iwngYx5JUygB4vKnpAeIq
lzCbCMKTU6MBGPBB/O5IOUlJGcKb9KlJgoFtNbKW5w==
-----END CERTIFICATE-----
