Certificate:
    Data:
        Version: 3 (0x2)
        Serial Number: 6 (0x6)
        Signature Algorithm: sha1WithRSAEncryption
        Issuer: C=US, ST=Virginia, O=Lumify, CN=#361 Certificate Authority
        Validity
            Not Before: Apr 11 18:55:32 2014 GMT
            Not After : Apr 10 18:55:32 2016 GMT
        Subject: CN=Diane
        Subject Public Key Info:
            Public Key Algorithm: rsaEncryption
            RSA Public Key: (2048 bit)
                Modulus (2048 bit):
                    00:de:cd:73:ee:99:9c:12:5d:0d:21:e9:20:88:5d:
                    75:81:dd:1b:6f:ce:14:e8:de:b4:7b:38:25:9b:fe:
                    bd:58:d0:fd:1e:d9:04:13:71:91:cd:02:09:66:f3:
                    9d:d1:fe:b8:98:87:75:13:b6:b1:69:d2:57:92:34:
                    0d:ac:eb:cc:94:9e:98:2d:e0:33:6f:91:6d:c5:d8:
                    78:fd:89:20:7c:5a:f3:94:a8:7e:a2:13:e1:6f:63:
                    cf:29:99:c2:b8:2e:1c:f8:06:58:07:e2:fa:b5:f8:
                    b7:fe:28:51:95:e0:2d:f8:ef:5e:c4:f1:fd:ee:9d:
                    7b:22:92:d8:8d:cc:47:0f:4c:72:12:a2:3c:b8:99:
                    72:4c:8a:7f:45:a6:c5:6e:1c:e4:04:8c:31:f8:5d:
                    c8:ce:f8:df:f4:f6:19:25:60:79:ca:d6:53:75:37:
                    b0:ff:92:e7:0d:aa:b5:2a:70:75:8b:f9:ee:49:80:
                    cd:ad:c2:e7:e5:46:f9:1b:7e:2e:ac:7f:61:12:84:
                    14:6d:86:cc:29:9b:71:1d:bd:d0:c4:33:eb:7b:71:
                    99:e2:f2:84:9e:59:60:63:d9:0a:eb:24:dd:da:d5:
                    c9:80:fe:bb:23:8a:da:7c:4f:c7:fe:8e:7a:32:d4:
                    03:4d:52:7c:c4:01:61:6d:a0:f2:f7:94:74:00:81:
                    a2:31
                Exponent: 65537 (0x10001)
        X509v3 extensions:
            X509v3 Basic Constraints: 
                CA:FALSE
            Netscape Comment: 
                OpenSSL Generated Certificate
            X509v3 Subject Key Identifier: 
                73:03:62:8F:CF:AC:CD:DE:43:EC:36:08:6A:E2:2E:48:65:6E:F6:13
            X509v3 Authority Key Identifier: 
                keyid:26:5A:73:E4:BB:BF:C4:8C:01:75:99:F2:BF:10:11:DC:FE:08:EC:2A

    Signature Algorithm: sha1WithRSAEncryption
        80:4e:4d:6b:5e:8a:82:82:9c:c3:cf:0d:94:7d:a1:bb:f6:f3:
        de:56:dd:28:ee:15:05:43:75:2d:70:f4:16:8f:ce:b4:70:2f:
        be:b0:fe:d4:c6:cf:3b:8e:a6:39:41:65:7e:a6:0d:c6:10:20:
        c3:4b:3a:49:ba:ad:56:b3:cc:fd:b4:d3:f8:09:f7:d8:44:37:
        1b:d7:83:3c:b7:97:ad:ad:fb:18:43:d5:9f:2f:6b:c5:7a:78:
        9f:7d:13:83:2d:20:6c:20:5c:0f:c8:86:96:f7:62:15:8b:91:
        1b:bb:b4:6e:0f:45:35:76:52:e0:87:2d:6a:9d:16:b5:eb:d7:
        af:48:f5:f2:1b:ef:43:1e:63:8b:03:eb:74:02:b3:83:fa:b9:
        f0:ff:53:76:78:ca:36:b1:f1:3d:aa:8c:fa:51:8e:b0:08:c4:
        ca:41:d3:d6:95:36:e8:63:7c:2e:c9:72:8f:ca:f9:a4:47:c2:
        f8:e4:be:0d:32:7a:c4:ca:46:31:5c:15:a3:8f:83:5d:31:f6:
        91:e8:02:7d:cb:35:7a:c4:3f:5e:a0:b6:ba:94:1a:a9:96:ab:
        f7:b7:42:f6:87:f9:cb:65:87:e1:17:de:18:fa:99:3f:35:5b:
        d5:ae:b4:b1:2b:85:83:56:68:e1:fa:8a:f9:89:10:de:b8:a0:
        dc:f4:3d:6c
-----BEGIN CERTIFICATE-----
MIIDXDCCAkSgAwIBAgIBBjANBgkqhkiG9w0BAQUFADBWMQswCQYDVQQGEwJVUzER
MA8GA1UECBMIVmlyZ2luaWExDzANBgNVBAoTBkx1bWlmeTEjMCEGA1UEAxQaIzM2
MSBDZXJ0aWZpY2F0ZSBBdXRob3JpdHkwHhcNMTQwNDExMTg1NTMyWhcNMTYwNDEw
MTg1NTMyWjAQMQ4wDAYDVQQDEwVEaWFuZTCCASIwDQYJKoZIhvcNAQEBBQADggEP
ADCCAQoCggEBAN7Nc+6ZnBJdDSHpIIhddYHdG2/OFOjetHs4JZv+vVjQ/R7ZBBNx
kc0CCWbzndH+uJiHdRO2sWnSV5I0DazrzJSemC3gM2+RbcXYeP2JIHxa85SofqIT
4W9jzymZwrguHPgGWAfi+rX4t/4oUZXgLfjvXsTx/e6deyKS2I3MRw9MchKiPLiZ
ckyKf0WmxW4c5ASMMfhdyM743/T2GSVgecrWU3U3sP+S5w2qtSpwdYv57kmAza3C
5+VG+Rt+Lqx/YRKEFG2GzCmbcR290MQz63txmeLyhJ5ZYGPZCusk3drVyYD+uyOK
2nxPx/6OejLUA01SfMQBYW2g8veUdACBojECAwEAAaN7MHkwCQYDVR0TBAIwADAs
BglghkgBhvhCAQ0EHxYdT3BlblNTTCBHZW5lcmF0ZWQgQ2VydGlmaWNhdGUwHQYD
VR0OBBYEFHMDYo/PrM3eQ+w2CGriLkhlbvYTMB8GA1UdIwQYMBaAFCZac+S7v8SM
AXWZ8r8QEdz+COwqMA0GCSqGSIb3DQEBBQUAA4IBAQCATk1rXoqCgpzDzw2UfaG7
9vPeVt0o7hUFQ3UtcPQWj860cC++sP7Uxs87jqY5QWV+pg3GECDDSzpJuq1Ws8z9
tNP4CffYRDcb14M8t5etrfsYQ9WfL2vFeniffRODLSBsIFwPyIaW92IVi5Ebu7Ru
D0U1dlLghy1qnRa169evSPXyG+9DHmOLA+t0ArOD+rnw/1N2eMo2sfE9qoz6UY6w
CMTKQdPWlTboY3wuyXKPyvmkR8L45L4NMnrEykYxXBWjj4NdMfaR6AJ9yzV6xD9e
oLa6lBqplqv3t0L2h/nLZYfhF94Y+pk/NVvVrrSxK4WDVmjh+or5iRDeuKDc9D1s
-----END CERTIFICATE-----
